target datalayout = "e-m:e-p270:32:32-p271:32:32-p272:64:64-i64:64-i128:128-f80:128-n8:16:32:64-S128"
target triple = "x86_64-pc-linux-gnu"

%struct.JNINativeInterface_ = type { ptr, ptr, ptr, ptr, ptr, ptr, ptr, ptr, ptr, ptr, ptr, ptr, ptr, ptr, ptr, ptr, ptr, ptr, ptr, ptr, ptr, ptr, ptr, ptr, ptr, ptr, ptr, ptr, ptr, ptr, ptr, ptr, ptr, ptr, ptr, ptr, ptr, ptr, ptr, ptr, ptr, ptr, ptr, ptr, ptr, ptr, ptr, ptr, ptr, ptr, ptr, ptr, ptr, ptr, ptr, ptr, ptr, ptr, ptr, ptr, ptr, ptr, ptr, ptr, ptr, ptr, ptr, ptr, ptr, ptr, ptr, ptr, ptr, ptr, ptr, ptr, ptr, ptr, ptr, ptr, ptr, ptr, ptr, ptr, ptr, ptr, ptr, ptr, ptr, ptr, ptr, ptr, ptr, ptr, ptr, ptr, ptr, ptr, ptr, ptr, ptr, ptr, ptr, ptr, ptr, ptr, ptr, ptr, ptr, ptr, ptr, ptr, ptr, ptr, ptr, ptr, ptr, ptr, ptr, ptr, ptr, ptr, ptr, ptr, ptr, ptr, ptr, ptr, ptr, ptr, ptr, ptr, ptr, ptr, ptr, ptr, ptr, ptr, ptr, ptr, ptr, ptr, ptr, ptr, ptr, ptr, ptr, ptr, ptr, ptr, ptr, ptr, ptr, ptr, ptr, ptr, ptr, ptr, ptr, ptr, ptr, ptr, ptr, ptr, ptr, ptr, ptr, ptr, ptr, ptr, ptr, ptr, ptr, ptr, ptr, ptr, ptr, ptr, ptr, ptr, ptr, ptr, ptr, ptr, ptr, ptr, ptr, ptr, ptr, ptr, ptr, ptr, ptr, ptr, ptr, ptr, ptr, ptr, ptr, ptr, ptr, ptr, ptr, ptr, ptr, ptr, ptr, ptr, ptr, ptr, ptr, ptr, ptr, ptr, ptr, ptr, ptr, ptr, ptr, ptr, ptr, ptr, ptr, ptr, ptr, ptr, ptr, ptr, ptr, ptr, ptr, ptr, ptr, ptr, ptr }
%struct.JDKFontInfo_Struct = type { ptr, ptr, ptr, [4 x float], float, float, float, float }
%struct.hb_feature_t = type { i32, i32, i32, i32 }

@.str.2 = private unnamed_addr constant [5 x i8] c"kern\00", align 1
@.str.3 = private unnamed_addr constant [6 x i8] c"-kern\00", align 1
@.str.4 = private unnamed_addr constant [5 x i8] c"liga\00", align 1
@.str.5 = private unnamed_addr constant [6 x i8] c"-liga\00", align 1

; Function Attrs: nounwind uwtable
define zeroext i8 @Java_sun_font_SunLayoutEngine_shape(ptr noundef %0, ptr noundef %1, ptr noundef %2, ptr noundef %3, float noundef %4, ptr noundef %5, i64 noundef %6, ptr noundef %7, ptr noundef %8, i32 noundef %9, i32 noundef %10, i32 noundef %11, i32 noundef %12, ptr noundef %13, i32 noundef %14, i32 noundef %15) #0 {
  %17 = alloca i8, align 1
  %18 = alloca ptr, align 8
  %19 = alloca ptr, align 8
  %20 = alloca ptr, align 8
  %21 = alloca ptr, align 8
  %22 = alloca float, align 4
  %23 = alloca ptr, align 8
  %24 = alloca i64, align 8
  %25 = alloca ptr, align 8
  %26 = alloca ptr, align 8
  %27 = alloca i32, align 4
  %28 = alloca i32, align 4
  %29 = alloca i32, align 4
  %30 = alloca i32, align 4
  %31 = alloca ptr, align 8
  %32 = alloca i32, align 4
  %33 = alloca i32, align 4
  %34 = alloca ptr, align 8
  %35 = alloca ptr, align 8
  %36 = alloca ptr, align 8
  %37 = alloca ptr, align 8
  %38 = alloca i32, align 4
  %39 = alloca i32, align 4
  %40 = alloca ptr, align 8
  %41 = alloca ptr, align 8
  %42 = alloca i32, align 4
  %43 = alloca ptr, align 8
  %44 = alloca i32, align 4
  %45 = alloca ptr, align 8
  %46 = alloca ptr, align 8
  %47 = alloca i8, align 1
  %48 = alloca i32, align 4
  %49 = alloca ptr, align 8
  store ptr %0, ptr %18, align 8
  store ptr %1, ptr %19, align 8
  store ptr %2, ptr %20, align 8
  store ptr %3, ptr %21, align 8
  store float %4, ptr %22, align 4
  store ptr %5, ptr %23, align 8
  store i64 %6, ptr %24, align 8
  store ptr %7, ptr %25, align 8
  store ptr %8, ptr %26, align 8
  store i32 %9, ptr %27, align 4
  store i32 %10, ptr %28, align 4
  store i32 %11, ptr %29, align 4
  store i32 %12, ptr %30, align 4
  store ptr %13, ptr %31, align 8
  store i32 %14, ptr %32, align 4
  store i32 %15, ptr %33, align 4
  store i32 4, ptr %42, align 4
  store ptr null, ptr %43, align 8
  store i32 0, ptr %44, align 4
  %50 = load i32, ptr %32, align 4
  %51 = and i32 %50, 1
  %52 = icmp ne i32 %51, 0
  %53 = select i1 %52, ptr @.str.2, ptr @.str.3
  store ptr %53, ptr %45, align 8
  %54 = load i32, ptr %32, align 4
  %55 = and i32 %54, 2
  %56 = icmp ne i32 %55, 0
  %57 = select i1 %56, ptr @.str.4, ptr @.str.5
  store ptr %57, ptr %46, align 8
  %58 = load ptr, ptr %18, align 8
  %59 = load ptr, ptr %20, align 8
  %60 = load ptr, ptr %21, align 8
  %61 = load float, ptr %22, align 4
  %62 = load ptr, ptr %23, align 8
  %63 = call ptr @createJDKFontInfo(ptr noundef %58, ptr noundef %59, ptr noundef %60, float noundef %61, ptr noundef %62)
  store ptr %63, ptr %49, align 8
  %64 = load ptr, ptr %49, align 8
  %65 = icmp ne ptr %64, null
  br i1 %65, label %67, label %66

66:                                               ; preds = %16
  store i8 0, ptr %17, align 1
  br label %191

67:                                               ; preds = %16
  %68 = load ptr, ptr %18, align 8
  %69 = load ptr, ptr %49, align 8
  %70 = getelementptr inbounds %struct.JDKFontInfo_Struct, ptr %69, i32 0, i32 0
  store ptr %68, ptr %70, align 8
  %71 = load ptr, ptr %20, align 8
  %72 = load ptr, ptr %49, align 8
  %73 = getelementptr inbounds %struct.JDKFontInfo_Struct, ptr %72, i32 0, i32 1
  store ptr %71, ptr %73, align 8
  %74 = load ptr, ptr %21, align 8
  %75 = load ptr, ptr %49, align 8
  %76 = getelementptr inbounds %struct.JDKFontInfo_Struct, ptr %75, i32 0, i32 2
  store ptr %74, ptr %76, align 8
  %77 = load i64, ptr %24, align 8
  %78 = inttoptr i64 %77 to ptr
  store ptr %78, ptr %35, align 8
  %79 = load ptr, ptr %35, align 8
  %80 = load ptr, ptr %49, align 8
  %81 = call ptr @hb_jdk_font_create(ptr noundef %79, ptr noundef %80, ptr noundef null)
  store ptr %81, ptr %36, align 8
  %82 = call ptr @hb_buffer_create()
  store ptr %82, ptr %34, align 8
  %83 = load ptr, ptr %34, align 8
  %84 = load i32, ptr %27, align 4
  %85 = call i32 @getHBScriptCode(i32 noundef %84)
  call void @hb_buffer_set_script(ptr noundef %83, i32 noundef %85)
  %86 = load ptr, ptr %34, align 8
  %87 = call ptr @hb_ot_tag_to_language(i32 noundef 1684434036)
  call void @hb_buffer_set_language(ptr noundef %86, ptr noundef %87)
  %88 = load i32, ptr %32, align 4
  %89 = and i32 %88, -2147483648
  %90 = icmp ne i32 %89, 0
  br i1 %90, label %91, label %92

91:                                               ; preds = %67
  store i32 5, ptr %42, align 4
  br label %92

92:                                               ; preds = %91, %67
  %93 = load ptr, ptr %34, align 8
  %94 = load i32, ptr %42, align 4
  call void @hb_buffer_set_direction(ptr noundef %93, i32 noundef %94)
  %95 = load ptr, ptr %34, align 8
  call void @hb_buffer_set_cluster_level(ptr noundef %95, i32 noundef 1)
  %96 = load ptr, ptr %18, align 8
  %97 = load ptr, ptr %96, align 8
  %98 = getelementptr inbounds %struct.JNINativeInterface_, ptr %97, i32 0, i32 185
  %99 = load ptr, ptr %98, align 8
  %100 = load ptr, ptr %18, align 8
  %101 = load ptr, ptr %25, align 8
  %102 = call ptr %99(ptr noundef %100, ptr noundef %101, ptr noundef null)
  store ptr %102, ptr %37, align 8
  %103 = load ptr, ptr %18, align 8
  %104 = load ptr, ptr %103, align 8
  %105 = getelementptr inbounds %struct.JNINativeInterface_, ptr %104, i32 0, i32 228
  %106 = load ptr, ptr %105, align 8
  %107 = load ptr, ptr %18, align 8
  %108 = call zeroext i8 %106(ptr noundef %107)
  %109 = icmp ne i8 %108, 0
  br i1 %109, label %110, label %114

110:                                              ; preds = %92
  %111 = load ptr, ptr %34, align 8
  call void @hb_buffer_destroy(ptr noundef %111)
  %112 = load ptr, ptr %36, align 8
  call void @hb_font_destroy(ptr noundef %112)
  %113 = load ptr, ptr %49, align 8
  call void @free(ptr noundef %113) #7
  store i8 0, ptr %17, align 1
  br label %191

114:                                              ; preds = %92
  %115 = load ptr, ptr %18, align 8
  %116 = load ptr, ptr %115, align 8
  %117 = getelementptr inbounds %struct.JNINativeInterface_, ptr %116, i32 0, i32 171
  %118 = load ptr, ptr %117, align 8
  %119 = load ptr, ptr %18, align 8
  %120 = load ptr, ptr %25, align 8
  %121 = call i32 %118(ptr noundef %119, ptr noundef %120)
  store i32 %121, ptr %38, align 4
  %122 = load ptr, ptr %34, align 8
  %123 = load ptr, ptr %37, align 8
  %124 = load i32, ptr %38, align 4
  %125 = load i32, ptr %28, align 4
  %126 = load i32, ptr %29, align 4
  %127 = load i32, ptr %28, align 4
  %128 = sub nsw i32 %126, %127
  call void @hb_buffer_add_utf16(ptr noundef %122, ptr noundef %123, i32 noundef %124, i32 noundef %125, i32 noundef %128)
  %129 = call noalias ptr @calloc(i64 noundef 2, i64 noundef 16) #8
  store ptr %129, ptr %43, align 8
  %130 = load ptr, ptr %43, align 8
  %131 = icmp ne ptr %130, null
  br i1 %131, label %132, label %147

132:                                              ; preds = %114
  %133 = load ptr, ptr %45, align 8
  %134 = load ptr, ptr %43, align 8
  %135 = load i32, ptr %44, align 4
  %136 = add nsw i32 %135, 1
  store i32 %136, ptr %44, align 4
  %137 = sext i32 %135 to i64
  %138 = getelementptr inbounds %struct.hb_feature_t, ptr %134, i64 %137
  %139 = call i32 @hb_feature_from_string(ptr noundef %133, i32 noundef -1, ptr noundef %138)
  %140 = load ptr, ptr %46, align 8
  %141 = load ptr, ptr %43, align 8
  %142 = load i32, ptr %44, align 4
  %143 = add nsw i32 %142, 1
  store i32 %143, ptr %44, align 4
  %144 = sext i32 %142 to i64
  %145 = getelementptr inbounds %struct.hb_feature_t, ptr %141, i64 %144
  %146 = call i32 @hb_feature_from_string(ptr noundef %140, i32 noundef -1, ptr noundef %145)
  br label %147

147:                                              ; preds = %132, %114
  %148 = load ptr, ptr %36, align 8
  %149 = load ptr, ptr %34, align 8
  %150 = load ptr, ptr %43, align 8
  %151 = load i32, ptr %44, align 4
  %152 = call i32 @hb_shape_full(ptr noundef %148, ptr noundef %149, ptr noundef %150, i32 noundef %151, ptr noundef null)
  %153 = load ptr, ptr %34, align 8
  %154 = call i32 @hb_buffer_get_length(ptr noundef %153)
  store i32 %154, ptr %39, align 4
  %155 = load ptr, ptr %34, align 8
  %156 = call ptr @hb_buffer_get_glyph_infos(ptr noundef %155, ptr noundef null)
  store ptr %156, ptr %40, align 8
  %157 = load ptr, ptr %34, align 8
  %158 = call ptr @hb_buffer_get_glyph_positions(ptr noundef %157, ptr noundef %48)
  store ptr %158, ptr %41, align 8
  %159 = load ptr, ptr %18, align 8
  %160 = load ptr, ptr %26, align 8
  %161 = load i32, ptr %33, align 4
  %162 = load i32, ptr %30, align 4
  %163 = load i32, ptr %28, align 4
  %164 = load ptr, ptr %31, align 8
  %165 = load i32, ptr %29, align 4
  %166 = load i32, ptr %28, align 4
  %167 = sub nsw i32 %165, %166
  %168 = load i32, ptr %39, align 4
  %169 = load ptr, ptr %40, align 8
  %170 = load ptr, ptr %41, align 8
  %171 = load ptr, ptr %49, align 8
  %172 = getelementptr inbounds %struct.JDKFontInfo_Struct, ptr %171, i32 0, i32 7
  %173 = load float, ptr %172, align 4
  %174 = call zeroext i8 @storeGVData(ptr noundef %159, ptr noundef %160, i32 noundef %161, i32 noundef %162, i32 noundef %163, ptr noundef %164, i32 noundef %167, i32 noundef %168, ptr noundef %169, ptr noundef %170, float noundef %173)
  store i8 %174, ptr %47, align 1
  %175 = load ptr, ptr %34, align 8
  call void @hb_buffer_destroy(ptr noundef %175)
  %176 = load ptr, ptr %36, align 8
  call void @hb_font_destroy(ptr noundef %176)
  %177 = load ptr, ptr %49, align 8
  call void @free(ptr noundef %177) #7
  %178 = load ptr, ptr %43, align 8
  %179 = icmp ne ptr %178, null
  br i1 %179, label %180, label %182

180:                                              ; preds = %147
  %181 = load ptr, ptr %43, align 8
  call void @free(ptr noundef %181) #7
  br label %182

182:                                              ; preds = %180, %147
  %183 = load ptr, ptr %18, align 8
  %184 = load ptr, ptr %183, align 8
  %185 = getelementptr inbounds %struct.JNINativeInterface_, ptr %184, i32 0, i32 193
  %186 = load ptr, ptr %185, align 8
  %187 = load ptr, ptr %18, align 8
  %188 = load ptr, ptr %25, align 8
  %189 = load ptr, ptr %37, align 8
  call void %186(ptr noundef %187, ptr noundef %188, ptr noundef %189, i32 noundef 2)
  %190 = load i8, ptr %47, align 1
  store i8 %190, ptr %17, align 1
  br label %191

191:                                              ; preds = %182, %110, %66
  %192 = load i8, ptr %17, align 1
  ret i8 %192
}