; Function Attrs: nounwind uwtable
define zeroext range(i8 0, 2) i8 @Java_sun_font_SunLayoutEngine_shape(ptr noundef %0, ptr nocapture noundef readnone %1, ptr noundef %2, ptr noundef %3, float noundef %4, ptr noundef %5, i64 noundef %6, ptr noundef %7, ptr noundef %8, i32 noundef %9, i32 noundef %10, i32 noundef %11, i32 noundef %12, ptr noundef %13, i32 noundef %14, i32 noundef %15) local_unnamed_addr #0 {
  %17 = alloca i32, align 4
  %18 = and i32 %14, 1
  %.not = icmp eq i32 %18, 0
  %19 = select i1 %.not, ptr @.str.3, ptr @.str.2
  %20 = and i32 %14, 2
  %.not81 = icmp eq i32 %20, 0
  %21 = select i1 %.not81, ptr @.str.5, ptr @.str.4
  %22 = tail call ptr @createJDKFontInfo(ptr noundef %0, ptr noundef %2, ptr noundef %3, float noundef %4, ptr noundef %5)
  %.not82 = icmp eq ptr %22, null
  br i1 %.not82, label %64, label %23

23:                                               ; preds = %16
  store ptr %0, ptr %22, align 8
  %24 = getelementptr inbounds i8, ptr %22, i64 8
  store ptr %2, ptr %24, align 8
  %25 = getelementptr inbounds i8, ptr %22, i64 16
  store ptr %3, ptr %25, align 8
  %26 = inttoptr i64 %6 to ptr
  %27 = tail call ptr @hb_jdk_font_create(ptr noundef %26, ptr noundef nonnull %22, ptr noundef null) #8
  %28 = tail call ptr @hb_buffer_create() #8
  %29 = tail call i32 @getHBScriptCode(i32 noundef %9) #8
  tail call void @hb_buffer_set_script(ptr noundef %28, i32 noundef %29) #8
  %30 = tail call ptr @hb_ot_tag_to_language(i32 noundef 1684434036) #8
  tail call void @hb_buffer_set_language(ptr noundef %28, ptr noundef %30) #8
  %.not83 = icmp sgt i32 %14, -1
  %spec.select = select i1 %.not83, i32 4, i32 5
  tail call void @hb_buffer_set_direction(ptr noundef %28, i32 noundef %spec.select) #8
  tail call void @hb_buffer_set_cluster_level(ptr noundef %28, i32 noundef 1) #8
  %31 = load ptr, ptr %0, align 8
  %32 = getelementptr inbounds i8, ptr %31, i64 1480
  %33 = load ptr, ptr %32, align 8
  %34 = tail call ptr %33(ptr noundef nonnull %0, ptr noundef %7, ptr noundef null) #8
  %35 = load ptr, ptr %0, align 8
  %36 = getelementptr inbounds i8, ptr %35, i64 1824
  %37 = load ptr, ptr %36, align 8
  %38 = tail call zeroext i8 %37(ptr noundef nonnull %0) #8
  %.not84 = icmp eq i8 %38, 0
  br i1 %.not84, label %40, label %39

39:                                               ; preds = %23
  tail call void @hb_buffer_destroy(ptr noundef %28) #8
  tail call void @hb_font_destroy(ptr noundef %27) #8
  tail call void @free(ptr noundef nonnull %22) #8
  br label %64

40:                                               ; preds = %23
  %41 = load ptr, ptr %0, align 8
  %42 = getelementptr inbounds i8, ptr %41, i64 1368
  %43 = load ptr, ptr %42, align 8
  %44 = tail call i32 %43(ptr noundef nonnull %0, ptr noundef %7) #8
  %45 = sub nsw i32 %11, %10
  tail call void @hb_buffer_add_utf16(ptr noundef %28, ptr noundef %34, i32 noundef %44, i32 noundef %10, i32 noundef %45) #8
  %46 = tail call noalias dereferenceable_or_null(32) ptr @calloc(i64 noundef 2, i64 noundef 16) #10
  %.not85 = icmp eq ptr %46, null
  br i1 %.not85, label %51, label %47

47:                                               ; preds = %40
  %48 = tail call i32 @hb_feature_from_string(ptr noundef nonnull %19, i32 noundef -1, ptr noundef nonnull %46) #8
  %49 = getelementptr inbounds i8, ptr %46, i64 16
  %50 = tail call i32 @hb_feature_from_string(ptr noundef nonnull %21, i32 noundef -1, ptr noundef nonnull %49) #8
  br label %51

51:                                               ; preds = %47, %40
  %.078 = phi i32 [ 2, %47 ], [ 0, %40 ]
  %52 = tail call i32 @hb_shape_full(ptr noundef %27, ptr noundef %28, ptr noundef %46, i32 noundef %.078, ptr noundef null) #8
  %53 = tail call i32 @hb_buffer_get_length(ptr noundef %28) #8
  %54 = tail call ptr @hb_buffer_get_glyph_infos(ptr noundef %28, ptr noundef null) #8
  %55 = call ptr @hb_buffer_get_glyph_positions(ptr noundef %28, ptr noundef nonnull %17) #8
  %56 = getelementptr inbounds i8, ptr %22, i64 52
  %57 = load float, ptr %56, align 4
  %58 = call zeroext i8 @storeGVData(ptr noundef nonnull %0, ptr noundef %8, i32 noundef %15, i32 noundef %12, i32 noundef %10, ptr noundef %13, i32 noundef %45, i32 noundef %53, ptr noundef %54, ptr noundef %55, float noundef %57)
  call void @hb_buffer_destroy(ptr noundef %28) #8
  call void @hb_font_destroy(ptr noundef %27) #8
  call void @free(ptr noundef nonnull %22) #8
  br i1 %.not85, label %60, label %59

59:                                               ; preds = %51
  call void @free(ptr noundef nonnull %46) #8
  br label %60

60:                                               ; preds = %59, %51
  %61 = load ptr, ptr %0, align 8
  %62 = getelementptr inbounds i8, ptr %61, i64 1544
  %63 = load ptr, ptr %62, align 8
  call void %63(ptr noundef nonnull %0, ptr noundef %7, ptr noundef %34, i32 noundef 2) #8
  br label %64

64:                                               ; preds = %16, %60, %39
  %.0 = phi i8 [ 0, %39 ], [ %58, %60 ], [ 0, %16 ]
  ret i8 %.0
}